; Function Attrs: nounwind uwtable
define range(i32 -1, 1) i32 @PGTYPESnumeric_from_double(double noundef %0, ptr noundef captures(address_is_null) %1) local_unnamed_addr #0 {
  %3 = alloca [115 x i8], align 16
  call void @llvm.lifetime.start.p0(i64 115, ptr nonnull %3) #14
  %4 = call i32 (ptr, ptr, ...) @pg_sprintf(ptr noundef nonnull %3, ptr noundef nonnull @.str, i32 noundef 15, double noundef %0) #14
  %5 = icmp slt i32 %4, 1
  br i1 %5, label %51, label %6

6:                                                ; preds = %2
  %7 = call ptr @PGTYPESnumeric_from_asc(ptr noundef nonnull %3, ptr noundef null)
  %8 = icmp eq ptr %7, null
  br i1 %8, label %51, label %9

9:                                                ; preds = %6
  %10 = icmp eq ptr %1, null
  br i1 %10, label %.critedge, label %11

11:                                               ; preds = %9
  %12 = getelementptr inbounds nuw i8, ptr %1, i64 24
  %13 = load ptr, ptr %12, align 8
  call void @free(ptr noundef %13) #14
  store i32 0, ptr %1, align 8
  %14 = getelementptr inbounds nuw i8, ptr %1, i64 4
  store i32 0, ptr %14, align 4
  %15 = getelementptr inbounds nuw i8, ptr %1, i64 16
  store i32 0, ptr %15, align 8
  call void @llvm.memset.p0.i64(ptr noundef nonnull align 8 dereferenceable(16) %12, i8 0, i64 16, i1 false)
  %16 = getelementptr inbounds nuw i8, ptr %7, i64 4
  %17 = load i32, ptr %16, align 4
  store i32 %17, ptr %14, align 4
  %18 = getelementptr inbounds nuw i8, ptr %7, i64 8
  %19 = load i32, ptr %18, align 8
  %20 = getelementptr inbounds nuw i8, ptr %1, i64 8
  store i32 %19, ptr %20, align 8
  %21 = getelementptr inbounds nuw i8, ptr %7, i64 12
  %22 = load i32, ptr %21, align 4
  %23 = getelementptr inbounds nuw i8, ptr %1, i64 12
  store i32 %22, ptr %23, align 4
  %24 = getelementptr inbounds nuw i8, ptr %7, i64 16
  %25 = load i32, ptr %24, align 8
  store i32 %25, ptr %15, align 8
  %26 = load i32, ptr %7, align 8
  %27 = add i32 %26, 1
  %28 = sext i32 %27 to i64
  %29 = call ptr @pgtypes_alloc(i64 noundef %28) #14
  store ptr %29, ptr %12, align 8
  %30 = icmp eq ptr %29, null
  br i1 %30, label %.critedge, label %alloc_var.exit.i

alloc_var.exit.i:                                 ; preds = %11
  store i8 0, ptr %29, align 1
  %31 = load ptr, ptr %12, align 8
  %32 = getelementptr inbounds nuw i8, ptr %31, i64 1
  %33 = getelementptr inbounds nuw i8, ptr %1, i64 32
  store ptr %32, ptr %33, align 8
  store i32 %26, ptr %1, align 8
  %34 = load i32, ptr %7, align 8
  %35 = icmp sgt i32 %34, 0
  br i1 %35, label %.lr.ph.i, label %PGTYPESnumeric_copy.exit

.lr.ph.i:                                         ; preds = %alloc_var.exit.i
  %36 = getelementptr inbounds nuw i8, ptr %7, i64 32
  br label %37

37:                                               ; preds = %37, %.lr.ph.i
  %indvars.iv.i = phi i64 [ 0, %.lr.ph.i ], [ %indvars.iv.next.i, %37 ]
  %38 = load ptr, ptr %36, align 8
  %39 = getelementptr inbounds nuw i8, ptr %38, i64 %indvars.iv.i
  %40 = load i8, ptr %39, align 1
  %41 = load ptr, ptr %33, align 8
  %42 = getelementptr inbounds nuw i8, ptr %41, i64 %indvars.iv.i
  store i8 %40, ptr %42, align 1
  %indvars.iv.next.i = add nuw nsw i64 %indvars.iv.i, 1
  %43 = load i32, ptr %7, align 8
  %44 = sext i32 %43 to i64
  %45 = icmp slt i64 %indvars.iv.next.i, %44
  br i1 %45, label %37, label %PGTYPESnumeric_copy.exit, !llvm.loop !9

PGTYPESnumeric_copy.exit:                         ; preds = %37, %alloc_var.exit.i
  %46 = getelementptr inbounds nuw i8, ptr %7, i64 24
  %47 = load ptr, ptr %46, align 8
  call void @free(ptr noundef %47) #14
  call void @free(ptr noundef nonnull %7) #14
  %48 = tail call ptr @__errno_location() #15
  store i32 0, ptr %48, align 4
  br label %51

.critedge:                                        ; preds = %11, %9
  %49 = getelementptr inbounds nuw i8, ptr %7, i64 24
  %50 = load ptr, ptr %49, align 8
  call void @free(ptr noundef %50) #14
  call void @free(ptr noundef nonnull %7) #14
  br label %51

51:                                               ; preds = %.critedge, %6, %2, %PGTYPESnumeric_copy.exit
  %.0 = phi i32 [ 0, %PGTYPESnumeric_copy.exit ], [ -1, %2 ], [ -1, %6 ], [ -1, %.critedge ]
  call void @llvm.lifetime.end.p0(i64 115, ptr nonnull %3) #14
  ret i32 %.0
}